; Function Attrs: mustprogress nounwind uwtable
define internal fastcc noundef nonnull align 8 dereferenceable(32) ptr @_ZNSt8functionIFdRZ24test_submodule_callbacksRN8pybind117module_EE12AbstractBaseEEaSIRPS5_EENSt9enable_ifIXsr9_CallableIT_EE5valueERS6_E4typeEOSB_(ptr noundef nonnull returned align 8 dereferenceable(32) %0, ptr %.0.val) unnamed_addr #6 align 2 personality ptr @__gxx_personality_v0 {
  %.sroa.0.i.i = alloca { i64, i64 }, align 8
  %2 = alloca %"class.std::function.644", align 8
  call void @llvm.lifetime.start.p0(i64 32, ptr nonnull %2) #38
  call void @llvm.memset.p0.i64(ptr noundef nonnull align 8 dereferenceable(32) %2, i8 0, i64 32, i1 false)
  %.not.i = icmp eq ptr %.0.val, null
  br i1 %.not.i, label %_ZNSt8functionIFdRZ24test_submodule_callbacksRN8pybind117module_EE12AbstractBaseEEC2IRPS5_vEEOT_.exit, label %3

3:                                                ; preds = %1
  store ptr %.0.val, ptr %2, align 8, !tbaa !237
  br label %_ZNSt8functionIFdRZ24test_submodule_callbacksRN8pybind117module_EE12AbstractBaseEEC2IRPS5_vEEOT_.exit

_ZNSt8functionIFdRZ24test_submodule_callbacksRN8pybind117module_EE12AbstractBaseEEC2IRPS5_vEEOT_.exit: ; preds = %1, %3
  %4 = phi ptr [ null, %1 ], [ @_ZNSt17_Function_handlerIFdRZ24test_submodule_callbacksRN8pybind117module_EE12AbstractBaseEPS5_E9_M_invokeERKSt9_Any_dataS4_, %3 ]
  %5 = phi ptr [ null, %1 ], [ @_ZNSt17_Function_handlerIFdRZ24test_submodule_callbacksRN8pybind117module_EE12AbstractBaseEPS5_E10_M_managerERSt9_Any_dataRKS8_St18_Manager_operation, %3 ]
  call void @llvm.lifetime.start.p0(i64 16, ptr nonnull %.sroa.0.i.i)
  call void @llvm.memcpy.p0.p0.i64(ptr noundef nonnull align 8 dereferenceable(16) %.sroa.0.i.i, ptr noundef nonnull align 8 dereferenceable(32) %2, i64 16, i1 false), !tbaa.struct !1222
  call void @llvm.memcpy.p0.p0.i64(ptr noundef nonnull align 8 dereferenceable(32) %2, ptr noundef nonnull align 8 dereferenceable(32) %0, i64 16, i1 false), !tbaa.struct !1222
  call void @llvm.memcpy.p0.p0.i64(ptr noundef nonnull align 8 dereferenceable(32) %0, ptr noundef nonnull align 8 dereferenceable(16) %.sroa.0.i.i, i64 16, i1 false), !tbaa.struct !1222
  call void @llvm.lifetime.end.p0(i64 16, ptr nonnull %.sroa.0.i.i)
  %6 = getelementptr inbounds nuw i8, ptr %2, i64 16
  %7 = getelementptr inbounds nuw i8, ptr %0, i64 16
  %8 = load ptr, ptr %7, align 8, !tbaa !237
  store ptr %8, ptr %6, align 8, !tbaa !237
  store ptr %5, ptr %7, align 8, !tbaa !237
  %9 = getelementptr inbounds nuw i8, ptr %2, i64 24
  %10 = getelementptr inbounds nuw i8, ptr %0, i64 24
  %11 = load ptr, ptr %10, align 8, !tbaa !237
  store ptr %11, ptr %9, align 8, !tbaa !237
  store ptr %4, ptr %10, align 8, !tbaa !237
  %.not.i2 = icmp eq ptr %8, null
  br i1 %.not.i2, label %_ZNSt14_Function_baseD2Ev.exit, label %12

12:                                               ; preds = %_ZNSt8functionIFdRZ24test_submodule_callbacksRN8pybind117module_EE12AbstractBaseEEC2IRPS5_vEEOT_.exit
  %13 = invoke noundef zeroext i1 %8(ptr noundef nonnull align 8 dereferenceable(32) %2, ptr noundef nonnull align 8 dereferenceable(32) %2, i32 noundef 3)
          to label %_ZNSt14_Function_baseD2Ev.exit unwind label %14

14:                                               ; preds = %12
  %15 = landingpad { ptr, i32 }
          catch ptr null
  %16 = extractvalue { ptr, i32 } %15, 0
  call void @__clang_call_terminate(ptr %16) #39
  unreachable

_ZNSt14_Function_baseD2Ev.exit:                   ; preds = %_ZNSt8functionIFdRZ24test_submodule_callbacksRN8pybind117module_EE12AbstractBaseEEC2IRPS5_vEEOT_.exit, %12
  call void @llvm.lifetime.end.p0(i64 32, ptr nonnull %2) #38
  ret ptr %0
}